; Function Attrs: mustprogress uwtable
define hidden void @_ZN7datalog24mk_similarity_compressor5resetEv(ptr nocapture noundef nonnull readonly align 8 dereferenceable(96) %this) local_unnamed_addr #3 align 2 {
entry:
  %m_rules = getelementptr inbounds i8, ptr %this, i64 48
  %0 = load ptr, ptr %m_rules, align 8
  %tobool.not.i = icmp eq ptr %0, null
  br i1 %tobool.not.i, label %_ZN6vectorIPN7datalog4ruleELb0EjE5resetEv.exit, label %if.then.i

if.then.i:                                        ; preds = %entry
  %arrayidx.i = getelementptr inbounds i8, ptr %0, i64 -4
  store i32 0, ptr %arrayidx.i, align 4
  br label %_ZN6vectorIPN7datalog4ruleELb0EjE5resetEv.exit

_ZN6vectorIPN7datalog4ruleELb0EjE5resetEv.exit:   ; preds = %entry, %if.then.i
  %m_result_rules = getelementptr inbounds i8, ptr %this, i64 56
  %m_nodes.i = getelementptr inbounds i8, ptr %this, i64 64
  %1 = load ptr, ptr %m_nodes.i, align 8
  %cmp.i.i = icmp eq ptr %1, null
  br i1 %cmp.i.i, label %_ZN15ref_vector_coreIN7datalog4ruleE19ref_manager_wrapperIS1_NS0_12rule_managerEEE5resetEv.exit, label %_ZNK6vectorIPN7datalog4ruleELb0EjE4sizeEv.exit.i

_ZNK6vectorIPN7datalog4ruleELb0EjE4sizeEv.exit.i: ; preds = %_ZN6vectorIPN7datalog4ruleELb0EjE5resetEv.exit
  %arrayidx.i.i = getelementptr inbounds i8, ptr %1, i64 -4
  %2 = load i32, ptr %arrayidx.i.i, align 4
  %3 = zext i32 %2 to i64
  %add.ptr.i = getelementptr inbounds ptr, ptr %1, i64 %3
  %cmp3.i.not.i = icmp eq i32 %2, 0
  br i1 %cmp3.i.not.i, label %if.then.i.i, label %for.body.i.i

for.body.i.i:                                     ; preds = %_ZNK6vectorIPN7datalog4ruleELb0EjE4sizeEv.exit.i, %for.body.i.i
  %it.04.i.i = phi ptr [ %incdec.ptr.i.i, %for.body.i.i ], [ %1, %_ZNK6vectorIPN7datalog4ruleELb0EjE4sizeEv.exit.i ]
  %4 = load ptr, ptr %it.04.i.i, align 8
  %5 = load ptr, ptr %m_result_rules, align 8
  tail call void @_ZN7datalog12rule_manager7dec_refEPNS_4ruleE(ptr noundef nonnull align 8 dereferenceable(1368) %5, ptr noundef %4)
  %incdec.ptr.i.i = getelementptr inbounds i8, ptr %it.04.i.i, i64 8
  %cmp.i1.i = icmp ult ptr %incdec.ptr.i.i, %add.ptr.i
  br i1 %cmp.i1.i, label %for.body.i.i, label %_ZN15ref_vector_coreIN7datalog4ruleE19ref_manager_wrapperIS1_NS0_12rule_managerEEE13dec_range_refEPKPS1_S8_.exit.i, !llvm.loop !4

_ZN15ref_vector_coreIN7datalog4ruleE19ref_manager_wrapperIS1_NS0_12rule_managerEEE13dec_range_refEPKPS1_S8_.exit.i: ; preds = %for.body.i.i
  %.pre.i = load ptr, ptr %m_nodes.i, align 8
  %tobool.not.i.i = icmp eq ptr %.pre.i, null
  br i1 %tobool.not.i.i, label %_ZN15ref_vector_coreIN7datalog4ruleE19ref_manager_wrapperIS1_NS0_12rule_managerEEE5resetEv.exit, label %if.then.i.i

if.then.i.i:                                      ; preds = %_ZN15ref_vector_coreIN7datalog4ruleE19ref_manager_wrapperIS1_NS0_12rule_managerEEE13dec_range_refEPKPS1_S8_.exit.i, %_ZNK6vectorIPN7datalog4ruleELb0EjE4sizeEv.exit.i
  %6 = phi ptr [ %.pre.i, %_ZN15ref_vector_coreIN7datalog4ruleE19ref_manager_wrapperIS1_NS0_12rule_managerEEE13dec_range_refEPKPS1_S8_.exit.i ], [ %1, %_ZNK6vectorIPN7datalog4ruleELb0EjE4sizeEv.exit.i ]
  %arrayidx.i2.i = getelementptr inbounds i8, ptr %6, i64 -4
  store i32 0, ptr %arrayidx.i2.i, align 4
  br label %_ZN15ref_vector_coreIN7datalog4ruleE19ref_manager_wrapperIS1_NS0_12rule_managerEEE5resetEv.exit

_ZN15ref_vector_coreIN7datalog4ruleE19ref_manager_wrapperIS1_NS0_12rule_managerEEE5resetEv.exit: ; preds = %_ZN6vectorIPN7datalog4ruleELb0EjE5resetEv.exit, %_ZN15ref_vector_coreIN7datalog4ruleE19ref_manager_wrapperIS1_NS0_12rule_managerEEE13dec_range_refEPKPS1_S8_.exit.i, %if.then.i.i
  %m_pinned = getelementptr inbounds i8, ptr %this, i64 80
  %m_nodes.i1 = getelementptr inbounds i8, ptr %this, i64 88
  %7 = load ptr, ptr %m_nodes.i1, align 8
  %cmp.i.i2 = icmp eq ptr %7, null
  br i1 %cmp.i.i2, label %_ZN15ref_vector_coreI3ast19ref_manager_wrapperIS0_11ast_managerEE5resetEv.exit, label %_ZNK6vectorIP3astLb0EjE4sizeEv.exit.i

_ZNK6vectorIP3astLb0EjE4sizeEv.exit.i:            ; preds = %_ZN15ref_vector_coreIN7datalog4ruleE19ref_manager_wrapperIS1_NS0_12rule_managerEEE5resetEv.exit
  %arrayidx.i.i3 = getelementptr inbounds i8, ptr %7, i64 -4
  %8 = load i32, ptr %arrayidx.i.i3, align 4
  %9 = zext i32 %8 to i64
  %add.ptr.i4 = getelementptr inbounds ptr, ptr %7, i64 %9
  %cmp3.i.not.i5 = icmp eq i32 %8, 0
  br i1 %cmp3.i.not.i5, label %if.then.i.i12, label %for.body.i.i6

for.body.i.i6:                                    ; preds = %_ZNK6vectorIP3astLb0EjE4sizeEv.exit.i, %_ZN15ref_vector_coreI3ast19ref_manager_wrapperIS0_11ast_managerEE7dec_refEPS0_.exit.i.i
  %it.04.i.i7 = phi ptr [ %incdec.ptr.i.i8, %_ZN15ref_vector_coreI3ast19ref_manager_wrapperIS0_11ast_managerEE7dec_refEPS0_.exit.i.i ], [ %7, %_ZNK6vectorIP3astLb0EjE4sizeEv.exit.i ]
  %10 = load ptr, ptr %it.04.i.i7, align 8
  %11 = load ptr, ptr %m_pinned, align 8
  %tobool.not.i.i.i.i.i = icmp eq ptr %10, null
  br i1 %tobool.not.i.i.i.i.i, label %_ZN15ref_vector_coreI3ast19ref_manager_wrapperIS0_11ast_managerEE7dec_refEPS0_.exit.i.i, label %if.then.i.i.i.i.i

if.then.i.i.i.i.i:                                ; preds = %for.body.i.i6
  %m_ref_count.i.i.i.i.i.i = getelementptr inbounds i8, ptr %10, i64 8
  %12 = load i32, ptr %m_ref_count.i.i.i.i.i.i, align 4
  %dec.i.i.i.i.i.i = add i32 %12, -1
  store i32 %dec.i.i.i.i.i.i, ptr %m_ref_count.i.i.i.i.i.i, align 4
  %cmp.i.i.i.i.i = icmp eq i32 %dec.i.i.i.i.i.i, 0
  br i1 %cmp.i.i.i.i.i, label %if.then2.i.i.i.i.i, label %_ZN15ref_vector_coreI3ast19ref_manager_wrapperIS0_11ast_managerEE7dec_refEPS0_.exit.i.i

if.then2.i.i.i.i.i:                               ; preds = %if.then.i.i.i.i.i
  tail call void @_ZN11ast_manager11delete_nodeEP3ast(ptr noundef nonnull align 8 dereferenceable(976) %11, ptr noundef nonnull %10)
  br label %_ZN15ref_vector_coreI3ast19ref_manager_wrapperIS0_11ast_managerEE7dec_refEPS0_.exit.i.i

_ZN15ref_vector_coreI3ast19ref_manager_wrapperIS0_11ast_managerEE7dec_refEPS0_.exit.i.i: ; preds = %if.then2.i.i.i.i.i, %if.then.i.i.i.i.i, %for.body.i.i6
  %incdec.ptr.i.i8 = getelementptr inbounds i8, ptr %it.04.i.i7, i64 8
  %cmp.i1.i9 = icmp ult ptr %incdec.ptr.i.i8, %add.ptr.i4
  br i1 %cmp.i1.i9, label %for.body.i.i6, label %_ZN15ref_vector_coreI3ast19ref_manager_wrapperIS0_11ast_managerEE13dec_range_refEPKPS0_S7_.exit.i, !llvm.loop !6

_ZN15ref_vector_coreI3ast19ref_manager_wrapperIS0_11ast_managerEE13dec_range_refEPKPS0_S7_.exit.i: ; preds = %_ZN15ref_vector_coreI3ast19ref_manager_wrapperIS0_11ast_managerEE7dec_refEPS0_.exit.i.i
  %.pre.i10 = load ptr, ptr %m_nodes.i1, align 8
  %tobool.not.i.i11 = icmp eq ptr %.pre.i10, null
  br i1 %tobool.not.i.i11, label %_ZN15ref_vector_coreI3ast19ref_manager_wrapperIS0_11ast_managerEE5resetEv.exit, label %if.then.i.i12

if.then.i.i12:                                    ; preds = %_ZN15ref_vector_coreI3ast19ref_manager_wrapperIS0_11ast_managerEE13dec_range_refEPKPS0_S7_.exit.i, %_ZNK6vectorIP3astLb0EjE4sizeEv.exit.i
  %13 = phi ptr [ %.pre.i10, %_ZN15ref_vector_coreI3ast19ref_manager_wrapperIS0_11ast_managerEE13dec_range_refEPKPS0_S7_.exit.i ], [ %7, %_ZNK6vectorIP3astLb0EjE4sizeEv.exit.i ]
  %arrayidx.i2.i13 = getelementptr inbounds i8, ptr %13, i64 -4
  store i32 0, ptr %arrayidx.i2.i13, align 4
  br label %_ZN15ref_vector_coreI3ast19ref_manager_wrapperIS0_11ast_managerEE5resetEv.exit

_ZN15ref_vector_coreI3ast19ref_manager_wrapperIS0_11ast_managerEE5resetEv.exit: ; preds = %_ZN15ref_vector_coreIN7datalog4ruleE19ref_manager_wrapperIS1_NS0_12rule_managerEEE5resetEv.exit, %_ZN15ref_vector_coreI3ast19ref_manager_wrapperIS0_11ast_managerEE13dec_range_refEPKPS0_S7_.exit.i, %if.then.i.i12
  ret void
}